target datalayout = "e-m:e-p270:32:32-p271:32:32-p272:64:64-i64:64-i128:128-f80:128-n8:16:32:64-S128"
target triple = "x86_64-pc-linux-gnu"

; Function Attrs: mustprogress nounwind uwtable
define internal noundef nonnull align 1 dereferenceable(1) ptr @"_ZNSt9_Any_data9_M_accessIN7rocksdb3$_1EEERT_v"(ptr noundef nonnull align 8 dereferenceable(16) %0) #2 align 2 {
  %2 = alloca ptr, align 8
  store ptr %0, ptr %2, align 8, !tbaa !578
  %3 = load ptr, ptr %2, align 8
  %4 = call noundef ptr @_ZNSt9_Any_data9_M_accessEv(ptr noundef nonnull align 8 dereferenceable(16) %3) #4
  ret ptr %4
}

; Function Attrs: noinline noreturn nounwind uwtable
define linkonce_odr hidden void @__clang_call_terminate(ptr noundef %0) #11 comdat {
  %2 = call ptr @__cxa_begin_catch(ptr %0) #4
  call void @_ZSt9terminatev() #22
  unreachable
}

; Function Attrs: mustprogress nounwind uwtable
define internal void @"_ZNSt14_Function_base13_Base_managerIN7rocksdb3$_1EE9_M_createIRKS2_EEvRSt9_Any_dataOT_St17integral_constantIbLb1EE"(ptr noundef nonnull align 8 dereferenceable(16) %0, ptr noundef nonnull align 1 dereferenceable(1) %1) #2 align 2 {
  %3 = alloca ptr, align 8
  %4 = alloca ptr, align 8
  store ptr %0, ptr %3, align 8, !tbaa !578
  store ptr %1, ptr %4, align 8, !tbaa !13
  %5 = load ptr, ptr %3, align 8, !tbaa !578
  %6 = call noundef ptr @_ZNSt9_Any_data9_M_accessEv(ptr noundef nonnull align 8 dereferenceable(16) %5) #4
  ret void
}

; Function Attrs: mustprogress nounwind uwtable
define linkonce_odr noundef ptr @_ZNKSt9_Any_data9_M_accessEv(ptr noundef nonnull align 8 dereferenceable(16) %0) #2 comdat align 2 {
  %2 = alloca ptr, align 8
  store ptr %0, ptr %2, align 8, !tbaa !578
  %3 = load ptr, ptr %2, align 8
  %4 = getelementptr inbounds [16 x i8], ptr %3, i64 0, i64 0
  ret ptr %4
}

; Function Attrs: mustprogress nounwind uwtable
define internal void @"_ZNSt14_Function_base13_Base_managerIN7rocksdb3$_1EE10_M_destroyERSt9_Any_dataSt17integral_constantIbLb1EE"(ptr noundef nonnull align 8 dereferenceable(16) %0) #2 align 2 {
  %2 = alloca ptr, align 8
  store ptr %0, ptr %2, align 8, !tbaa !578
  %3 = load ptr, ptr %2, align 8, !tbaa !578
  %4 = call noundef nonnull align 1 dereferenceable(1) ptr @"_ZNSt9_Any_data9_M_accessIN7rocksdb3$_1EEERT_v"(ptr noundef nonnull align 8 dereferenceable(16) %3) #4
  ret void
}

; Function Attrs: mustprogress nounwind uwtable
define internal void @"_ZNSt14_Function_base13_Base_managerIN7rocksdb3$_1EE15_M_init_functorIRKS2_EEvRSt9_Any_dataOT_"(ptr noundef nonnull align 8 dereferenceable(16) %0, ptr noundef nonnull align 1 dereferenceable(1) %1) #2 align 2 personality ptr @__gxx_personality_v0 {
  %3 = alloca ptr, align 8
  %4 = alloca ptr, align 8
  store ptr %0, ptr %3, align 8, !tbaa !578
  store ptr %1, ptr %4, align 8, !tbaa !13
  %5 = load ptr, ptr %3, align 8, !tbaa !578
  %6 = load ptr, ptr %4, align 8, !tbaa !13
  invoke void @"_ZNSt14_Function_base13_Base_managerIN7rocksdb3$_1EE9_M_createIRKS2_EEvRSt9_Any_dataOT_St17integral_constantIbLb1EE"(ptr noundef nonnull align 8 dereferenceable(16) %5, ptr noundef nonnull align 1 dereferenceable(1) %6)
          to label %7 unwind label %8

7:                                                ; preds = %2
  ret void

8:                                                ; preds = %2
  %9 = landingpad { ptr, i32 }
          catch ptr null
  %10 = extractvalue { ptr, i32 } %9, 0
  call void @__clang_call_terminate(ptr %10) #22
  unreachable
}

; Function Attrs: mustprogress nounwind uwtable
define linkonce_odr noundef nonnull align 8 dereferenceable(8) ptr @_ZNSt9_Any_data9_M_accessIPKSt9type_infoEERT_v(ptr noundef nonnull align 8 dereferenceable(16) %0) #2 comdat align 2 {
  %2 = alloca ptr, align 8
  store ptr %0, ptr %2, align 8, !tbaa !578
  %3 = load ptr, ptr %2, align 8
  %4 = call noundef ptr @_ZNSt9_Any_data9_M_accessEv(ptr noundef nonnull align 8 dereferenceable(16) %3) #4
  ret ptr %4
}

; Function Attrs: mustprogress nounwind uwtable
define linkonce_odr noundef ptr @_ZNSt9_Any_data9_M_accessEv(ptr noundef nonnull align 8 dereferenceable(16) %0) #2 comdat align 2 {
  %2 = alloca ptr, align 8
  store ptr %0, ptr %2, align 8, !tbaa !578
  %3 = load ptr, ptr %2, align 8
  %4 = getelementptr inbounds [16 x i8], ptr %3, i64 0, i64 0
  ret ptr %4
}

; Function Attrs: mustprogress nounwind uwtable
define internal noundef nonnull align 1 dereferenceable(1) ptr @"_ZNKSt9_Any_data9_M_accessIN7rocksdb3$_1EEERKT_v"(ptr noundef nonnull align 8 dereferenceable(16) %0) #2 align 2 {
  %2 = alloca ptr, align 8
  store ptr %0, ptr %2, align 8, !tbaa !578
  %3 = load ptr, ptr %2, align 8
  %4 = call noundef ptr @_ZNKSt9_Any_data9_M_accessEv(ptr noundef nonnull align 8 dereferenceable(16) %3) #4
  ret ptr %4
}

; Function Attrs: mustprogress uwtable
define internal noundef zeroext i1 @"_ZNSt14_Function_base13_Base_managerIN7rocksdb3$_1EE10_M_managerERSt9_Any_dataRKS4_St18_Manager_operation"(ptr noundef nonnull align 8 dereferenceable(16) %0, ptr noundef nonnull align 8 dereferenceable(16) %1, i32 noundef %2) #3 align 2 {
  %4 = alloca ptr, align 8
  %5 = alloca ptr, align 8
  %6 = alloca i32, align 4
  store ptr %0, ptr %4, align 8, !tbaa !578
  store ptr %1, ptr %5, align 8, !tbaa !578
  store i32 %2, ptr %6, align 4, !tbaa !1034
  %7 = load i32, ptr %6, align 4, !tbaa !1034
  switch i32 %7, label %22 [
    i32 0, label %8
    i32 1, label %11
    i32 2, label %16
    i32 3, label %20
  ]

8:                                                ; preds = %3
  %9 = load ptr, ptr %4, align 8, !tbaa !578
  %10 = call noundef nonnull align 8 dereferenceable(8) ptr @_ZNSt9_Any_data9_M_accessIPKSt9type_infoEERT_v(ptr noundef nonnull align 8 dereferenceable(16) %9) #4
  store ptr null, ptr %10, align 8, !tbaa !1040
  br label %22

11:                                               ; preds = %3
  %12 = load ptr, ptr %5, align 8, !tbaa !578
  %13 = call noundef ptr @"_ZNSt14_Function_base13_Base_managerIN7rocksdb3$_1EE14_M_get_pointerERKSt9_Any_data"(ptr noundef nonnull align 8 dereferenceable(16) %12) #4
  %14 = load ptr, ptr %4, align 8, !tbaa !578
  %15 = call noundef nonnull align 8 dereferenceable(8) ptr @"_ZNSt9_Any_data9_M_accessIPN7rocksdb3$_1EEERT_v"(ptr noundef nonnull align 8 dereferenceable(16) %14) #4
  store ptr %13, ptr %15, align 8, !tbaa !13
  br label %22

16:                                               ; preds = %3
  %17 = load ptr, ptr %4, align 8, !tbaa !578
  %18 = load ptr, ptr %5, align 8, !tbaa !578
  %19 = call noundef ptr @"_ZNSt14_Function_base13_Base_managerIN7rocksdb3$_1EE14_M_get_pointerERKSt9_Any_data"(ptr noundef nonnull align 8 dereferenceable(16) %18) #4
  call void @"_ZNSt14_Function_base13_Base_managerIN7rocksdb3$_1EE15_M_init_functorIRKS2_EEvRSt9_Any_dataOT_"(ptr noundef nonnull align 8 dereferenceable(16) %17, ptr noundef nonnull align 1 dereferenceable(1) %19) #4
  br label %22

20:                                               ; preds = %3
  %21 = load ptr, ptr %4, align 8, !tbaa !578
  call void @"_ZNSt14_Function_base13_Base_managerIN7rocksdb3$_1EE10_M_destroyERSt9_Any_dataSt17integral_constantIbLb1EE"(ptr noundef nonnull align 8 dereferenceable(16) %21)
  br label %22

22:                                               ; preds = %3, %20, %16, %11, %8
  ret i1 false
}

; Function Attrs: mustprogress nounwind uwtable
define internal noundef nonnull align 8 dereferenceable(8) ptr @"_ZNSt9_Any_data9_M_accessIPN7rocksdb3$_1EEERT_v"(ptr noundef nonnull align 8 dereferenceable(16) %0) #2 align 2 {
  %2 = alloca ptr, align 8
  store ptr %0, ptr %2, align 8, !tbaa !578
  %3 = load ptr, ptr %2, align 8
  %4 = call noundef ptr @_ZNSt9_Any_data9_M_accessEv(ptr noundef nonnull align 8 dereferenceable(16) %3) #4
  ret ptr %4
}

; Function Attrs: mustprogress nounwind uwtable
define internal noundef ptr @"_ZNSt14_Function_base13_Base_managerIN7rocksdb3$_1EE14_M_get_pointerERKSt9_Any_data"(ptr noundef nonnull align 8 dereferenceable(16) %0) #2 align 2 {
  %2 = alloca ptr, align 8
  %3 = alloca ptr, align 8
  store ptr %0, ptr %2, align 8, !tbaa !578
  call void @llvm.lifetime.start.p0(i64 8, ptr %3) #4
  %4 = load ptr, ptr %2, align 8, !tbaa !578
  %5 = call noundef nonnull align 1 dereferenceable(1) ptr @"_ZNKSt9_Any_data9_M_accessIN7rocksdb3$_1EEERKT_v"(ptr noundef nonnull align 8 dereferenceable(16) %4) #4
  store ptr %5, ptr %3, align 8, !tbaa !13
  %6 = load ptr, ptr %3, align 8, !tbaa !13
  call void @llvm.lifetime.end.p0(i64 8, ptr %3) #4
  ret ptr %6
}

; Function Attrs: mustprogress uwtable
define internal noundef zeroext i1 @"_ZNSt17_Function_handlerIFN7rocksdb6StatusERKNS0_13ConfigOptionsERKNSt7__cxx1112basic_stringIcSt11char_traitsIcESaIcEEEPvENS0_3$_1EE10_M_managerERSt9_Any_dataRKSH_St18_Manager_operation"(ptr noundef nonnull align 8 dereferenceable(16) %0, ptr noundef nonnull align 8 dereferenceable(16) %1, i32 noundef %2) #3 align 2 {
  %4 = alloca ptr, align 8
  %5 = alloca ptr, align 8
  %6 = alloca i32, align 4
  store ptr %0, ptr %4, align 8, !tbaa !578
  store ptr %1, ptr %5, align 8, !tbaa !578
  store i32 %2, ptr %6, align 4, !tbaa !1034
  %7 = load i32, ptr %6, align 4, !tbaa !1034
  switch i32 %7, label %13 [
    i32 1, label %8
  ]

8:                                                ; preds = %3
  %9 = load ptr, ptr %5, align 8, !tbaa !578
  %10 = call noundef ptr @"_ZNSt14_Function_base13_Base_managerIN7rocksdb3$_1EE14_M_get_pointerERKSt9_Any_data"(ptr noundef nonnull align 8 dereferenceable(16) %9) #4
  %11 = load ptr, ptr %4, align 8, !tbaa !578
  %12 = call noundef nonnull align 8 dereferenceable(8) ptr @"_ZNSt9_Any_data9_M_accessIPN7rocksdb3$_1EEERT_v"(ptr noundef nonnull align 8 dereferenceable(16) %11) #4
  store ptr %10, ptr %12, align 8, !tbaa !13
  br label %18

13:                                               ; preds = %3
  %14 = load ptr, ptr %4, align 8, !tbaa !578
  %15 = load ptr, ptr %5, align 8, !tbaa !578
  %16 = load i32, ptr %6, align 4, !tbaa !1034
  %17 = call noundef zeroext i1 @"_ZNSt14_Function_base13_Base_managerIN7rocksdb3$_1EE10_M_managerERSt9_Any_dataRKS4_St18_Manager_operation"(ptr noundef nonnull align 8 dereferenceable(16) %14, ptr noundef nonnull align 8 dereferenceable(16) %15, i32 noundef %16)
  br label %18

18:                                               ; preds = %13, %8
  ret i1 false
}